; Function Attrs: mustprogress nounwind uwtable
define dso_local void @_ZN26b3TriangleIndexVertexArrayD2Ev(ptr noundef nonnull align 16 dereferenceable(112) initializes((0, 8)) %0) unnamed_addr #2 align 2 personality ptr @__gxx_personality_v0 {
  store ptr getelementptr inbounds nuw inrange(-16, 112) (i8, ptr @_ZTV26b3TriangleIndexVertexArray, i64 16), ptr %0, align 16, !tbaa !4
  %2 = getelementptr inbounds nuw i8, ptr %0, i64 48
  %3 = load ptr, ptr %2, align 16, !tbaa !15
  %.not.i.i.i = icmp eq ptr %3, null
  br i1 %.not.i.i.i, label %_ZN20b3AlignedObjectArrayI13b3IndexedMeshED2Ev.exit, label %4

4:                                                ; preds = %1
  %5 = getelementptr inbounds nuw i8, ptr %0, i64 56
  %6 = load i8, ptr %5, align 8, !tbaa !7, !range !33, !noundef !34
  %7 = trunc nuw i8 %6 to i1
  br i1 %7, label %8, label %_ZN20b3AlignedObjectArrayI13b3IndexedMeshED2Ev.exit

8:                                                ; preds = %4
  invoke void @_Z21b3AlignedFreeInternalPv(ptr noundef nonnull %3)
          to label %_ZN20b3AlignedObjectArrayI13b3IndexedMeshED2Ev.exit unwind label %9

9:                                                ; preds = %8
  %10 = landingpad { ptr, i32 }
          catch ptr null
  %11 = extractvalue { ptr, i32 } %10, 0
  tail call void @__clang_call_terminate(ptr %11) #14
  unreachable

_ZN20b3AlignedObjectArrayI13b3IndexedMeshED2Ev.exit: ; preds = %1, %4, %8
  %12 = getelementptr inbounds nuw i8, ptr %0, i64 36
  %13 = getelementptr inbounds nuw i8, ptr %0, i64 56
  store i8 1, ptr %13, align 8, !tbaa !7
  store ptr null, ptr %2, align 16, !tbaa !15
  store i32 0, ptr %12, align 4, !tbaa !16
  %14 = getelementptr inbounds nuw i8, ptr %0, i64 40
  store i32 0, ptr %14, align 8, !tbaa !17
  tail call void @_ZN23b3StridingMeshInterfaceD2Ev(ptr noundef nonnull align 16 dereferenceable(32) %0) #13
  ret void
}